target datalayout = "e-m:e-p270:32:32-p271:32:32-p272:64:64-i64:64-i128:128-f80:128-n8:16:32:64-S128"
target triple = "x86_64-pc-linux-gnu"

%struct.Aig_VSig_t_ = type { i32, [12 x i32] }

@.str.10 = private unnamed_addr constant [2 x i8] c"\0A\00", align 1
@.str.16 = private unnamed_addr constant [2 x i8] c"=\00", align 1
@.str.17 = private unnamed_addr constant [2 x i8] c"x\00", align 1
@.str.18 = private unnamed_addr constant [2 x i8] c"0\00", align 1
@.str.19 = private unnamed_addr constant [2 x i8] c"-\00", align 1
@.str.20 = private unnamed_addr constant [3 x i8] c"%c\00", align 1

; Function Attrs: inlinehint nounwind uwtable
define internal i32 @Aig_RManCompareSigs(ptr noundef %0, ptr noundef %1, i32 noundef %2) #5 {
  %4 = alloca ptr, align 8
  %5 = alloca ptr, align 8
  %6 = alloca i32, align 4
  store ptr %0, ptr %4, align 8, !tbaa !54
  store ptr %1, ptr %5, align 8, !tbaa !54
  store i32 %2, ptr %6, align 4, !tbaa !25
  %7 = load ptr, ptr %4, align 8, !tbaa !54
  %8 = load ptr, ptr %5, align 8, !tbaa !54
  %9 = call i32 @memcmp(ptr noundef %7, ptr noundef %8, i64 noundef 4) #13
  ret i32 %9
}

; Function Attrs: nounwind uwtable
define void @Aig_RManPrintUniqueVars(ptr noundef %0, i32 noundef %1) #0 {
  %3 = alloca ptr, align 8
  %4 = alloca i32, align 4
  %5 = alloca i32, align 4
  store ptr %0, ptr %3, align 8, !tbaa !54
  store i32 %1, ptr %4, align 4, !tbaa !25
  call void @llvm.lifetime.start.p0(i64 4, ptr %5) #10
  store i32 0, ptr %5, align 4, !tbaa !25
  br label %6

6:                                                ; preds = %30, %2
  %7 = load i32, ptr %5, align 4, !tbaa !25
  %8 = load i32, ptr %4, align 4, !tbaa !25
  %9 = icmp slt i32 %7, %8
  br i1 %9, label %10, label %33

10:                                               ; preds = %6
  %11 = load ptr, ptr %3, align 8, !tbaa !54
  %12 = load i32, ptr %5, align 4, !tbaa !25
  %13 = mul nsw i32 2, %12
  %14 = sext i32 %13 to i64
  %15 = getelementptr inbounds %struct.Aig_VSig_t_, ptr %11, i64 %14
  %16 = load ptr, ptr %3, align 8, !tbaa !54
  %17 = load i32, ptr %5, align 4, !tbaa !25
  %18 = mul nsw i32 2, %17
  %19 = add nsw i32 %18, 1
  %20 = sext i32 %19 to i64
  %21 = getelementptr inbounds %struct.Aig_VSig_t_, ptr %16, i64 %20
  %22 = load i32, ptr %4, align 4, !tbaa !25
  %23 = call i32 @Aig_RManCompareSigs(ptr noundef %15, ptr noundef %21, i32 noundef %22)
  %24 = icmp eq i32 %23, 0
  br i1 %24, label %25, label %27

25:                                               ; preds = %10
  %26 = call i32 (ptr, ...) @printf(ptr noundef @.str.16)
  br label %29

27:                                               ; preds = %10
  %28 = call i32 (ptr, ...) @printf(ptr noundef @.str.17)
  br label %29

29:                                               ; preds = %27, %25
  br label %30

30:                                               ; preds = %29
  %31 = load i32, ptr %5, align 4, !tbaa !25
  %32 = add nsw i32 %31, 1
  store i32 %32, ptr %5, align 4, !tbaa !25
  br label %6, !llvm.loop !64

33:                                               ; preds = %6
  %34 = call i32 (ptr, ...) @printf(ptr noundef @.str.10)
  %35 = call i32 (ptr, ...) @printf(ptr noundef @.str.18)
  store i32 1, ptr %5, align 4, !tbaa !25
  br label %36

36:                                               ; preds = %71, %33
  %37 = load i32, ptr %5, align 4, !tbaa !25
  %38 = load i32, ptr %4, align 4, !tbaa !25
  %39 = icmp slt i32 %37, %38
  br i1 %39, label %40, label %74

40:                                               ; preds = %36
  %41 = load ptr, ptr %3, align 8, !tbaa !54
  %42 = load i32, ptr %5, align 4, !tbaa !25
  %43 = sub nsw i32 %42, 1
  %44 = mul nsw i32 2, %43
  %45 = sext i32 %44 to i64
  %46 = getelementptr inbounds %struct.Aig_VSig_t_, ptr %41, i64 %45
  %47 = load ptr, ptr %3, align 8, !tbaa !54
  %48 = load i32, ptr %5, align 4, !tbaa !25
  %49 = mul nsw i32 2, %48
  %50 = sext i32 %49 to i64
  %51 = getelementptr inbounds %struct.Aig_VSig_t_, ptr %47, i64 %50
  %52 = load i32, ptr %4, align 4, !tbaa !25
  %53 = call i32 @Aig_RManCompareSigs(ptr noundef %46, ptr noundef %51, i32 noundef %52)
  %54 = icmp eq i32 %53, 0
  br i1 %54, label %55, label %57

55:                                               ; preds = %40
  %56 = call i32 (ptr, ...) @printf(ptr noundef @.str.19)
  br label %70

57:                                               ; preds = %40
  %58 = load i32, ptr %5, align 4, !tbaa !25
  %59 = icmp slt i32 %58, 10
  br i1 %59, label %60, label %64

60:                                               ; preds = %57
  %61 = load i32, ptr %5, align 4, !tbaa !25
  %62 = add nsw i32 48, %61
  %63 = call i32 (ptr, ...) @printf(ptr noundef @.str.20, i32 noundef %62)
  br label %69

64:                                               ; preds = %57
  %65 = load i32, ptr %5, align 4, !tbaa !25
  %66 = add nsw i32 65, %65
  %67 = sub nsw i32 %66, 10
  %68 = call i32 (ptr, ...) @printf(ptr noundef @.str.20, i32 noundef %67)
  br label %69

69:                                               ; preds = %64, %60
  br label %70

70:                                               ; preds = %69, %55
  br label %71

71:                                               ; preds = %70
  %72 = load i32, ptr %5, align 4, !tbaa !25
  %73 = add nsw i32 %72, 1
  store i32 %73, ptr %5, align 4, !tbaa !25
  br label %36, !llvm.loop !65

74:                                               ; preds = %36
  %75 = call i32 (ptr, ...) @printf(ptr noundef @.str.10)
  call void @llvm.lifetime.end.p0(i64 4, ptr %5) #10
  ret void
}