; Function Attrs: nofree nounwind uwtable
define void @Aig_RManPrintUniqueVars(ptr noundef readonly captures(none) %0, i32 noundef %1) local_unnamed_addr #9 {
  %3 = icmp sgt i32 %1, 0
  br i1 %3, label %.lr.ph.preheader, label %._crit_edge

.lr.ph.preheader:                                 ; preds = %2
  %wide.trip.count = zext nneg i32 %1 to i64
  br label %.lr.ph

.lr.ph:                                           ; preds = %.lr.ph.preheader, %.lr.ph
  %indvars.iv = phi i64 [ 0, %.lr.ph.preheader ], [ %indvars.iv.next, %.lr.ph ]
  %4 = shl nuw nsw i64 %indvars.iv, 1
  %5 = getelementptr inbounds nuw %struct.Aig_VSig_t_, ptr %0, i64 %4
  %6 = or disjoint i64 %4, 1
  %7 = getelementptr inbounds nuw %struct.Aig_VSig_t_, ptr %0, i64 %6
  %bcmp27 = tail call i32 @bcmp(ptr noundef nonnull dereferenceable(4) %5, ptr noundef nonnull dereferenceable(4) %7, i64 4)
  %8 = icmp eq i32 %bcmp27, 0
  %. = select i1 %8, i32 61, i32 120
  %putchar26 = tail call i32 @putchar(i32 %.)
  %indvars.iv.next = add nuw nsw i64 %indvars.iv, 1
  %exitcond.not = icmp eq i64 %indvars.iv.next, %wide.trip.count
  br i1 %exitcond.not, label %._crit_edge, label %.lr.ph, !llvm.loop !55

._crit_edge:                                      ; preds = %.lr.ph, %2
  %putchar = tail call i32 @putchar(i32 10)
  %putchar20 = tail call i32 @putchar(i32 48)
  %9 = icmp sgt i32 %1, 1
  br i1 %9, label %.lr.ph31.preheader, label %._crit_edge32

.lr.ph31.preheader:                               ; preds = %._crit_edge
  %wide.trip.count37 = zext nneg i32 %1 to i64
  br label %.lr.ph31

.lr.ph31:                                         ; preds = %.lr.ph31.preheader, %22
  %indvars.iv34 = phi i64 [ 1, %.lr.ph31.preheader ], [ %indvars.iv.next35, %22 ]
  %10 = shl i64 %indvars.iv34, 33
  %sext = add i64 %10, -8589934592
  %11 = ashr exact i64 %sext, 32
  %12 = getelementptr inbounds %struct.Aig_VSig_t_, ptr %0, i64 %11
  %.idx = mul nuw i64 %indvars.iv34, 104
  %13 = getelementptr inbounds nuw i8, ptr %0, i64 %.idx
  %bcmp = tail call i32 @bcmp(ptr noundef nonnull dereferenceable(4) %12, ptr noundef nonnull dereferenceable(4) %13, i64 4)
  %14 = icmp eq i32 %bcmp, 0
  br i1 %14, label %22, label %15

15:                                               ; preds = %.lr.ph31
  %16 = icmp samesign ult i64 %indvars.iv34, 10
  %17 = trunc i64 %indvars.iv34 to i32
  br i1 %16, label %18, label %20

18:                                               ; preds = %15
  %19 = or disjoint i32 %17, 48
  br label %22

20:                                               ; preds = %15
  %21 = add i32 %17, 55
  br label %22

22:                                               ; preds = %.lr.ph31, %20, %18
  %.sink39 = phi i32 [ %21, %20 ], [ %19, %18 ], [ 45, %.lr.ph31 ]
  %putchar24 = tail call i32 @putchar(i32 %.sink39)
  %indvars.iv.next35 = add nuw nsw i64 %indvars.iv34, 1
  %exitcond38.not = icmp eq i64 %indvars.iv.next35, %wide.trip.count37
  br i1 %exitcond38.not, label %._crit_edge32, label %.lr.ph31, !llvm.loop !56

._crit_edge32:                                    ; preds = %22, %._crit_edge
  %putchar21 = tail call i32 @putchar(i32 10)
  ret void
}